target datalayout = "e-m:e-p270:32:32-p271:32:32-p272:64:64-i64:64-i128:128-f80:128-n8:16:32:64-S128"
target triple = "x86_64-pc-linux-gnu"

%struct.expert_field = type { i32, i32 }

@hf_uftp_destlist = internal global i32 0, align 4
@hf_uftp_dest = internal global i32 0, align 4
@hf_uftp_regconf = internal global i32 0, align 4
@hf_uftp_regconf_func = internal global i32 0, align 4
@hf_uftp_regconf_reserved = internal global i32 0, align 4
@hf_uftp_regconf_destcount = internal global i32 0, align 4
@ett_uftp_regconf = internal global i32 0, align 4
@ett_uftp_destlist = internal global i32 0, align 4
@ei_uftp_length_invalid = internal global %struct.expert_field zeroinitializer, align 4
@.str.289 = private unnamed_addr constant [19 x i8] c"Invalid length: %d\00", align 1
@.str.292 = private unnamed_addr constant [35 x i8] c"Invalid length, len = %d, count=%d\00", align 1

; Function Attrs: null_pointer_is_valid sspstrong uwtable
define internal void @dissect_uftp_regconf(ptr noundef %0, ptr noundef %1, ptr noundef %2) #0 {
  %4 = alloca ptr, align 8
  %5 = alloca ptr, align 8
  %6 = alloca ptr, align 8
  %7 = alloca ptr, align 8
  %8 = alloca ptr, align 8
  %9 = alloca ptr, align 8
  %10 = alloca ptr, align 8
  %11 = alloca i32, align 4
  %12 = alloca i16, align 2
  %13 = alloca i16, align 2
  %14 = alloca i32, align 4
  store ptr %0, ptr %4, align 8
  store ptr %1, ptr %5, align 8
  store ptr %2, ptr %6, align 8
  call void @llvm.lifetime.start.p0(i64 8, ptr %7) #3
  store ptr null, ptr %7, align 8
  call void @llvm.lifetime.start.p0(i64 8, ptr %8) #3
  store ptr null, ptr %8, align 8
  call void @llvm.lifetime.start.p0(i64 8, ptr %9) #3
  store ptr null, ptr %9, align 8
  call void @llvm.lifetime.start.p0(i64 8, ptr %10) #3
  store ptr null, ptr %10, align 8
  call void @llvm.lifetime.start.p0(i64 4, ptr %11) #3
  store i32 0, ptr %11, align 4
  call void @llvm.lifetime.start.p0(i64 2, ptr %12) #3
  call void @llvm.lifetime.start.p0(i64 2, ptr %13) #3
  %15 = load ptr, ptr %4, align 8
  %16 = call i32 @tvb_reported_length(ptr noundef %15)
  %17 = icmp ult i32 %16, 4
  br i1 %17, label %18, label %26

18:                                               ; preds = %3
  %19 = load ptr, ptr %6, align 8
  %20 = load ptr, ptr %5, align 8
  %21 = load ptr, ptr %4, align 8
  %22 = load i32, ptr %11, align 4
  %23 = load ptr, ptr %4, align 8
  %24 = call i32 @tvb_reported_length(ptr noundef %23)
  %25 = call ptr (ptr, ptr, ptr, ptr, i32, i32, ptr, ...) @proto_tree_add_expert_format(ptr noundef %19, ptr noundef %20, ptr noundef @ei_uftp_length_invalid, ptr noundef %21, i32 noundef %22, i32 noundef -1, ptr noundef @.str.289, i32 noundef %24)
  store i32 1, ptr %14, align 4
  br label %110

26:                                               ; preds = %3
  %27 = load ptr, ptr %4, align 8
  %28 = call zeroext i16 @tvb_get_ntohs(ptr noundef %27, i32 noundef 2)
  store i16 %28, ptr %12, align 2
  %29 = load ptr, ptr %4, align 8
  %30 = call i32 @tvb_reported_length(ptr noundef %29)
  %31 = load i16, ptr %12, align 2
  %32 = zext i16 %31 to i32
  %33 = mul i32 %32, 4
  %34 = add i32 4, %33
  %35 = icmp slt i32 %30, %34
  br i1 %35, label %36, label %46

36:                                               ; preds = %26
  %37 = load ptr, ptr %6, align 8
  %38 = load ptr, ptr %5, align 8
  %39 = load ptr, ptr %4, align 8
  %40 = load i32, ptr %11, align 4
  %41 = load ptr, ptr %4, align 8
  %42 = call i32 @tvb_reported_length(ptr noundef %41)
  %43 = load i16, ptr %12, align 2
  %44 = zext i16 %43 to i32
  %45 = call ptr (ptr, ptr, ptr, ptr, i32, i32, ptr, ...) @proto_tree_add_expert_format(ptr noundef %37, ptr noundef %38, ptr noundef @ei_uftp_length_invalid, ptr noundef %39, i32 noundef %40, i32 noundef -1, ptr noundef @.str.292, i32 noundef %42, i32 noundef %44)
  store i32 1, ptr %14, align 4
  br label %110

46:                                               ; preds = %26
  %47 = load ptr, ptr %6, align 8
  %48 = load i32, ptr @hf_uftp_regconf, align 4
  %49 = load ptr, ptr %4, align 8
  %50 = load i32, ptr %11, align 4
  %51 = call ptr @proto_tree_add_item(ptr noundef %47, i32 noundef %48, ptr noundef %49, i32 noundef %50, i32 noundef -1, i32 noundef 0)
  store ptr %51, ptr %7, align 8
  %52 = load ptr, ptr %7, align 8
  %53 = load i32, ptr @ett_uftp_regconf, align 4
  %54 = call ptr @proto_item_add_subtree(ptr noundef %52, i32 noundef %53)
  store ptr %54, ptr %9, align 8
  %55 = load ptr, ptr %9, align 8
  %56 = load i32, ptr @hf_uftp_regconf_func, align 4
  %57 = load ptr, ptr %4, align 8
  %58 = load i32, ptr %11, align 4
  %59 = call ptr @proto_tree_add_item(ptr noundef %55, i32 noundef %56, ptr noundef %57, i32 noundef %58, i32 noundef 1, i32 noundef 0)
  %60 = load i32, ptr %11, align 4
  %61 = add i32 %60, 1
  store i32 %61, ptr %11, align 4
  %62 = load ptr, ptr %9, align 8
  %63 = load i32, ptr @hf_uftp_regconf_reserved, align 4
  %64 = load ptr, ptr %4, align 8
  %65 = load i32, ptr %11, align 4
  %66 = call ptr @proto_tree_add_item(ptr noundef %62, i32 noundef %63, ptr noundef %64, i32 noundef %65, i32 noundef 1, i32 noundef 0)
  %67 = load i32, ptr %11, align 4
  %68 = add i32 %67, 1
  store i32 %68, ptr %11, align 4
  %69 = load ptr, ptr %9, align 8
  %70 = load i32, ptr @hf_uftp_regconf_destcount, align 4
  %71 = load ptr, ptr %4, align 8
  %72 = load i32, ptr %11, align 4
  %73 = call ptr @proto_tree_add_item(ptr noundef %69, i32 noundef %70, ptr noundef %71, i32 noundef %72, i32 noundef 2, i32 noundef 0)
  %74 = load i32, ptr %11, align 4
  %75 = add i32 %74, 2
  store i32 %75, ptr %11, align 4
  %76 = load i16, ptr %12, align 2
  %77 = zext i16 %76 to i32
  %78 = icmp sgt i32 %77, 0
  br i1 %78, label %79, label %91

79:                                               ; preds = %46
  %80 = load ptr, ptr %9, align 8
  %81 = load i32, ptr @hf_uftp_destlist, align 4
  %82 = load ptr, ptr %4, align 8
  %83 = load i32, ptr %11, align 4
  %84 = load i16, ptr %12, align 2
  %85 = zext i16 %84 to i32
  %86 = mul i32 %85, 4
  %87 = call ptr @proto_tree_add_item(ptr noundef %80, i32 noundef %81, ptr noundef %82, i32 noundef %83, i32 noundef %86, i32 noundef 0)
  store ptr %87, ptr %8, align 8
  %88 = load ptr, ptr %8, align 8
  %89 = load i32, ptr @ett_uftp_destlist, align 4
  %90 = call ptr @proto_item_add_subtree(ptr noundef %88, i32 noundef %89)
  store ptr %90, ptr %10, align 8
  br label %91

91:                                               ; preds = %79, %46
  store i16 0, ptr %13, align 2
  br label %92

92:                                               ; preds = %106, %91
  %93 = load i16, ptr %13, align 2
  %94 = zext i16 %93 to i32
  %95 = load i16, ptr %12, align 2
  %96 = zext i16 %95 to i32
  %97 = icmp slt i32 %94, %96
  br i1 %97, label %98, label %109

98:                                               ; preds = %92
  %99 = load ptr, ptr %10, align 8
  %100 = load i32, ptr @hf_uftp_dest, align 4
  %101 = load ptr, ptr %4, align 8
  %102 = load i32, ptr %11, align 4
  %103 = call ptr @proto_tree_add_item(ptr noundef %99, i32 noundef %100, ptr noundef %101, i32 noundef %102, i32 noundef 4, i32 noundef 0)
  %104 = load i32, ptr %11, align 4
  %105 = add i32 %104, 4
  store i32 %105, ptr %11, align 4
  br label %106

106:                                              ; preds = %98
  %107 = load i16, ptr %13, align 2
  %108 = add i16 %107, 1
  store i16 %108, ptr %13, align 2
  br label %92, !llvm.loop !9

109:                                              ; preds = %92
  store i32 0, ptr %14, align 4
  br label %110

110:                                              ; preds = %109, %36, %18
  call void @llvm.lifetime.end.p0(i64 2, ptr %13) #3
  call void @llvm.lifetime.end.p0(i64 2, ptr %12) #3
  call void @llvm.lifetime.end.p0(i64 4, ptr %11) #3
  call void @llvm.lifetime.end.p0(i64 8, ptr %10) #3
  call void @llvm.lifetime.end.p0(i64 8, ptr %9) #3
  call void @llvm.lifetime.end.p0(i64 8, ptr %8) #3
  call void @llvm.lifetime.end.p0(i64 8, ptr %7) #3
  %111 = load i32, ptr %14, align 4
  switch i32 %111, label %113 [
    i32 0, label %112
    i32 1, label %112
  ]

112:                                              ; preds = %110, %110
  ret void

113:                                              ; preds = %110
  unreachable
}